target datalayout = "e-m:e-p270:32:32-p271:32:32-p272:64:64-i64:64-i128:128-f80:128-n8:16:32:64-S128"
target triple = "x86_64-pc-linux-gnu"

%"class.std::basic_ios" = type { %"class.std::ios_base", ptr, i8, i8, ptr, ptr, ptr, ptr }
%"class.std::ios_base" = type { ptr, i64, i64, i32, i32, i32, ptr, %"struct.std::ios_base::_Words", [8 x %"struct.std::ios_base::_Words"], i32, ptr, %"class.std::locale" }
%"struct.std::ios_base::_Words" = type { ptr, i64 }
%"class.std::locale" = type { ptr }
%"class.std::__cxx11::basic_string" = type { %"struct.std::__cxx11::basic_string<char>::_Alloc_hider", i64, %union.anon }
%"struct.std::__cxx11::basic_string<char>::_Alloc_hider" = type { ptr }
%union.anon = type { i64, [8 x i8] }
%"struct.Moves::moveStatType" = type { i32, i32, i32, i32 }
%"class.std::__cxx11::basic_stringstream" = type { %"class.std::basic_iostream.base", %"class.std::__cxx11::basic_stringbuf", %"class.std::basic_ios" }
%"class.std::basic_iostream.base" = type { %"class.std::basic_istream.base", %"class.std::basic_ostream.base" }
%"class.std::basic_istream.base" = type { ptr, i64 }
%"class.std::basic_ostream.base" = type { ptr }
%"class.std::__cxx11::basic_stringbuf" = type { %"class.std::basic_streambuf", i32, %"class.std::__cxx11::basic_string" }
%"class.std::basic_streambuf" = type { ptr, ptr, ptr, ptr, ptr, ptr, ptr, %"class.std::locale" }
%"struct.std::_Setw" = type { i32 }
%"struct.std::_Setprecision" = type { i32 }

@.str.31 = private unnamed_addr constant [3 x i8] c"--\00", align 1

; Function Attrs: mustprogress nounwind uwtable
define linkonce_odr i32 @_ZSt12setprecisioni(i32 noundef %0) #5 comdat {
  %2 = alloca %"struct.std::_Setprecision", align 4
  %3 = alloca i32, align 4
  store i32 %0, ptr %3, align 4
  %4 = getelementptr inbounds nuw %"struct.std::_Setprecision", ptr %2, i32 0, i32 0
  %5 = load i32, ptr %3, align 4
  store i32 %5, ptr %4, align 4
  %6 = getelementptr inbounds nuw %"struct.std::_Setprecision", ptr %2, i32 0, i32 0
  %7 = load i32, ptr %6, align 4
  ret i32 %7
}

; Function Attrs: mustprogress nounwind uwtable
define linkonce_odr i32 @_ZSt4setwi(i32 noundef %0) #5 comdat {
  %2 = alloca %"struct.std::_Setw", align 4
  %3 = alloca i32, align 4
  store i32 %0, ptr %3, align 4
  %4 = getelementptr inbounds nuw %"struct.std::_Setw", ptr %2, i32 0, i32 0
  %5 = load i32, ptr %3, align 4
  store i32 %5, ptr %4, align 4
  %6 = getelementptr inbounds nuw %"struct.std::_Setw", ptr %2, i32 0, i32 0
  %7 = load i32, ptr %6, align 4
  ret i32 %7
}

; Function Attrs: mustprogress uwtable
define void @_ZNK5Moves13AverageStringB5cxx11ERKNS_12moveStatTypeE(ptr dead_on_unwind noalias writable sret(%"class.std::__cxx11::basic_string") align 8 %0, ptr noundef nonnull align 8 dereferenceable(39992) %1, ptr noundef nonnull align 4 dereferenceable(16) %2) #4 align 2 personality ptr @__gxx_personality_v0 {
  %4 = alloca ptr, align 8
  %5 = alloca ptr, align 8
  %6 = alloca ptr, align 8
  %7 = alloca %"class.std::__cxx11::basic_stringstream", align 8
  %8 = alloca %"struct.std::_Setw", align 4
  %9 = alloca ptr, align 8
  %10 = alloca i32, align 4
  %11 = alloca %"struct.std::_Setw", align 4
  %12 = alloca %"struct.std::_Setw", align 4
  %13 = alloca %"struct.std::_Setprecision", align 4
  %14 = alloca %"struct.std::_Setw", align 4
  %15 = alloca %"struct.std::_Setprecision", align 4
  store ptr %0, ptr %4, align 8
  store ptr %1, ptr %5, align 8
  store ptr %2, ptr %6, align 8
  call void @_ZNSt7__cxx1118basic_stringstreamIcSt11char_traitsIcESaIcEEC1Ev(ptr noundef nonnull align 8 dereferenceable(128) %7)
  %16 = load ptr, ptr %6, align 8
  %17 = getelementptr inbounds nuw %"struct.Moves::moveStatType", ptr %16, i32 0, i32 0
  %18 = load i32, ptr %17, align 4
  %19 = icmp eq i32 %18, 0
  br i1 %19, label %20, label %46

20:                                               ; preds = %3
  %21 = getelementptr inbounds i8, ptr %7, i64 16
  %22 = invoke i32 @_ZSt4setwi(i32 noundef 5)
          to label %23 unwind label %42

23:                                               ; preds = %20
  %24 = getelementptr inbounds nuw %"struct.std::_Setw", ptr %8, i32 0, i32 0
  store i32 %22, ptr %24, align 4
  %25 = getelementptr inbounds nuw %"struct.std::_Setw", ptr %8, i32 0, i32 0
  %26 = load i32, ptr %25, align 4
  %27 = invoke noundef nonnull align 8 dereferenceable(8) ptr @_ZStlsIcSt11char_traitsIcEERSt13basic_ostreamIT_T0_ES6_St5_Setw(ptr noundef nonnull align 8 dereferenceable(8) %21, i32 %26)
          to label %28 unwind label %42

28:                                               ; preds = %23
  %29 = invoke noundef nonnull align 8 dereferenceable(8) ptr @_ZNSolsEPFRSt8ios_baseS0_E(ptr noundef nonnull align 8 dereferenceable(8) %27, ptr noundef @_ZSt5rightRSt8ios_base)
          to label %30 unwind label %42

30:                                               ; preds = %28
  %31 = invoke noundef nonnull align 8 dereferenceable(8) ptr @_ZStlsISt11char_traitsIcEERSt13basic_ostreamIcT_ES5_PKc(ptr noundef nonnull align 8 dereferenceable(8) %29, ptr noundef @.str.31)
          to label %32 unwind label %42

32:                                               ; preds = %30
  %33 = invoke i32 @_ZSt4setwi(i32 noundef 5)
          to label %34 unwind label %42

34:                                               ; preds = %32
  %35 = getelementptr inbounds nuw %"struct.std::_Setw", ptr %11, i32 0, i32 0
  store i32 %33, ptr %35, align 4
  %36 = getelementptr inbounds nuw %"struct.std::_Setw", ptr %11, i32 0, i32 0
  %37 = load i32, ptr %36, align 4
  %38 = invoke noundef nonnull align 8 dereferenceable(8) ptr @_ZStlsIcSt11char_traitsIcEERSt13basic_ostreamIT_T0_ES6_St5_Setw(ptr noundef nonnull align 8 dereferenceable(8) %31, i32 %37)
          to label %39 unwind label %42

39:                                               ; preds = %34
  %40 = invoke noundef nonnull align 8 dereferenceable(8) ptr @_ZStlsISt11char_traitsIcEERSt13basic_ostreamIcT_ES5_PKc(ptr noundef nonnull align 8 dereferenceable(8) %38, ptr noundef @.str.31)
          to label %41 unwind label %42

41:                                               ; preds = %39
  br label %103

42:                                               ; preds = %103, %90, %88, %83, %81, %76, %74, %63, %61, %56, %54, %49, %46, %39, %34, %32, %30, %28, %23, %20
  %43 = landingpad { ptr, i32 }
          cleanup
  %44 = extractvalue { ptr, i32 } %43, 0
  store ptr %44, ptr %9, align 8
  %45 = extractvalue { ptr, i32 } %43, 1
  store i32 %45, ptr %10, align 4
  call void @_ZNSt7__cxx1118basic_stringstreamIcSt11char_traitsIcESaIcEED1Ev(ptr noundef nonnull align 8 dereferenceable(128) %7) #3
  br label %105

46:                                               ; preds = %3
  %47 = getelementptr inbounds i8, ptr %7, i64 16
  %48 = invoke i32 @_ZSt4setwi(i32 noundef 5)
          to label %49 unwind label %42

49:                                               ; preds = %46
  %50 = getelementptr inbounds nuw %"struct.std::_Setw", ptr %12, i32 0, i32 0
  store i32 %48, ptr %50, align 4
  %51 = getelementptr inbounds nuw %"struct.std::_Setw", ptr %12, i32 0, i32 0
  %52 = load i32, ptr %51, align 4
  %53 = invoke noundef nonnull align 8 dereferenceable(8) ptr @_ZStlsIcSt11char_traitsIcEERSt13basic_ostreamIT_T0_ES6_St5_Setw(ptr noundef nonnull align 8 dereferenceable(8) %47, i32 %52)
          to label %54 unwind label %42

54:                                               ; preds = %49
  %55 = invoke i32 @_ZSt12setprecisioni(i32 noundef 2)
          to label %56 unwind label %42

56:                                               ; preds = %54
  %57 = getelementptr inbounds nuw %"struct.std::_Setprecision", ptr %13, i32 0, i32 0
  store i32 %55, ptr %57, align 4
  %58 = getelementptr inbounds nuw %"struct.std::_Setprecision", ptr %13, i32 0, i32 0
  %59 = load i32, ptr %58, align 4
  %60 = invoke noundef nonnull align 8 dereferenceable(8) ptr @_ZStlsIcSt11char_traitsIcEERSt13basic_ostreamIT_T0_ES6_St13_Setprecision(ptr noundef nonnull align 8 dereferenceable(8) %53, i32 %59)
          to label %61 unwind label %42

61:                                               ; preds = %56
  %62 = invoke noundef nonnull align 8 dereferenceable(8) ptr @_ZNSolsEPFRSt8ios_baseS0_E(ptr noundef nonnull align 8 dereferenceable(8) %60, ptr noundef @_ZSt5fixedRSt8ios_base)
          to label %63 unwind label %42

63:                                               ; preds = %61
  %64 = load ptr, ptr %6, align 8
  %65 = getelementptr inbounds nuw %"struct.Moves::moveStatType", ptr %64, i32 0, i32 2
  %66 = load i32, ptr %65, align 4
  %67 = sitofp i32 %66 to double
  %68 = load ptr, ptr %6, align 8
  %69 = getelementptr inbounds nuw %"struct.Moves::moveStatType", ptr %68, i32 0, i32 0
  %70 = load i32, ptr %69, align 4
  %71 = sitofp i32 %70 to double
  %72 = fdiv double %67, %71
  %73 = invoke noundef nonnull align 8 dereferenceable(8) ptr @_ZNSolsEd(ptr noundef nonnull align 8 dereferenceable(8) %62, double noundef %72)
          to label %74 unwind label %42

74:                                               ; preds = %63
  %75 = invoke i32 @_ZSt4setwi(i32 noundef 5)
          to label %76 unwind label %42

76:                                               ; preds = %74
  %77 = getelementptr inbounds nuw %"struct.std::_Setw", ptr %14, i32 0, i32 0
  store i32 %75, ptr %77, align 4
  %78 = getelementptr inbounds nuw %"struct.std::_Setw", ptr %14, i32 0, i32 0
  %79 = load i32, ptr %78, align 4
  %80 = invoke noundef nonnull align 8 dereferenceable(8) ptr @_ZStlsIcSt11char_traitsIcEERSt13basic_ostreamIT_T0_ES6_St5_Setw(ptr noundef nonnull align 8 dereferenceable(8) %73, i32 %79)
          to label %81 unwind label %42

81:                                               ; preds = %76
  %82 = invoke i32 @_ZSt12setprecisioni(i32 noundef 1)
          to label %83 unwind label %42

83:                                               ; preds = %81
  %84 = getelementptr inbounds nuw %"struct.std::_Setprecision", ptr %15, i32 0, i32 0
  store i32 %82, ptr %84, align 4
  %85 = getelementptr inbounds nuw %"struct.std::_Setprecision", ptr %15, i32 0, i32 0
  %86 = load i32, ptr %85, align 4
  %87 = invoke noundef nonnull align 8 dereferenceable(8) ptr @_ZStlsIcSt11char_traitsIcEERSt13basic_ostreamIT_T0_ES6_St13_Setprecision(ptr noundef nonnull align 8 dereferenceable(8) %80, i32 %86)
          to label %88 unwind label %42

88:                                               ; preds = %83
  %89 = invoke noundef nonnull align 8 dereferenceable(8) ptr @_ZNSolsEPFRSt8ios_baseS0_E(ptr noundef nonnull align 8 dereferenceable(8) %87, ptr noundef @_ZSt5fixedRSt8ios_base)
          to label %90 unwind label %42

90:                                               ; preds = %88
  %91 = load ptr, ptr %6, align 8
  %92 = getelementptr inbounds nuw %"struct.Moves::moveStatType", ptr %91, i32 0, i32 2
  %93 = load i32, ptr %92, align 4
  %94 = sitofp i32 %93 to double
  %95 = fmul double 1.000000e+02, %94
  %96 = load ptr, ptr %6, align 8
  %97 = getelementptr inbounds nuw %"struct.Moves::moveStatType", ptr %96, i32 0, i32 3
  %98 = load i32, ptr %97, align 4
  %99 = sitofp i32 %98 to double
  %100 = fdiv double %95, %99
  %101 = invoke noundef nonnull align 8 dereferenceable(8) ptr @_ZNSolsEd(ptr noundef nonnull align 8 dereferenceable(8) %89, double noundef %100)
          to label %102 unwind label %42

102:                                              ; preds = %90
  br label %103

103:                                              ; preds = %102, %41
  invoke void @_ZNKSt7__cxx1118basic_stringstreamIcSt11char_traitsIcESaIcEE3strEv(ptr dead_on_unwind writable sret(%"class.std::__cxx11::basic_string") align 8 %0, ptr noundef nonnull align 8 dereferenceable(128) %7)
          to label %104 unwind label %42

104:                                              ; preds = %103
  call void @_ZNSt7__cxx1118basic_stringstreamIcSt11char_traitsIcESaIcEED1Ev(ptr noundef nonnull align 8 dereferenceable(128) %7) #3
  ret void

105:                                              ; preds = %42
  %106 = load ptr, ptr %9, align 8
  %107 = load i32, ptr %10, align 4
  %108 = insertvalue { ptr, i32 } poison, ptr %106, 0
  %109 = insertvalue { ptr, i32 } %108, i32 %107, 1
  resume { ptr, i32 } %109
}