; Function Attrs: mustprogress uwtable
define void @_ZNK5Moves13AverageStringB5cxx11ERKNS_12moveStatTypeE(ptr dead_on_unwind noalias writable sret(%"class.std::__cxx11::basic_string") align 8 %0, ptr nocapture nonnull readnone align 8 %1, ptr nocapture noundef nonnull readonly align 4 dereferenceable(16) %2) local_unnamed_addr #3 align 2 personality ptr @__gxx_personality_v0 {
  %4 = alloca %"class.std::__cxx11::basic_stringstream", align 8
  call void @_ZNSt7__cxx1118basic_stringstreamIcSt11char_traitsIcESaIcEEC1Ev(ptr noundef nonnull align 8 dereferenceable(128) %4)
  %5 = load i32, ptr %2, align 4
  %6 = icmp eq i32 %5, 0
  %7 = getelementptr inbounds i8, ptr %4, i64 16
  br i1 %6, label %8, label %20

8:                                                ; preds = %3
  %9 = invoke noundef nonnull align 8 dereferenceable(8) ptr @_ZStlsIcSt11char_traitsIcEERSt13basic_ostreamIT_T0_ES6_St5_Setw(ptr noundef nonnull align 8 dereferenceable(8) %7, i32 5)
          to label %10 unwind label %18

10:                                               ; preds = %8
  %11 = invoke noundef nonnull align 8 dereferenceable(8) ptr @_ZNSolsEPFRSt8ios_baseS0_E(ptr noundef nonnull align 8 dereferenceable(8) %9, ptr noundef nonnull @_ZSt5rightRSt8ios_base)
          to label %12 unwind label %18

12:                                               ; preds = %10
  %13 = invoke noundef nonnull align 8 dereferenceable(8) ptr @_ZStlsISt11char_traitsIcEERSt13basic_ostreamIcT_ES5_PKc(ptr noundef nonnull align 8 dereferenceable(8) %11, ptr noundef nonnull @.str.31)
          to label %14 unwind label %18

14:                                               ; preds = %12
  %15 = invoke noundef nonnull align 8 dereferenceable(8) ptr @_ZStlsIcSt11char_traitsIcEERSt13basic_ostreamIT_T0_ES6_St5_Setw(ptr noundef nonnull align 8 dereferenceable(8) %13, i32 5)
          to label %16 unwind label %18

16:                                               ; preds = %14
  %17 = invoke noundef nonnull align 8 dereferenceable(8) ptr @_ZStlsISt11char_traitsIcEERSt13basic_ostreamIcT_ES5_PKc(ptr noundef nonnull align 8 dereferenceable(8) %15, ptr noundef nonnull @.str.31)
          to label %49 unwind label %18

18:                                               ; preds = %49, %40, %38, %36, %34, %26, %24, %22, %20, %16, %14, %12, %10, %8
  %19 = landingpad { ptr, i32 }
          cleanup
  call void @_ZNSt7__cxx1118basic_stringstreamIcSt11char_traitsIcESaIcEED1Ev(ptr noundef nonnull align 8 dereferenceable(128) %4) #21
  resume { ptr, i32 } %19

20:                                               ; preds = %3
  %21 = invoke noundef nonnull align 8 dereferenceable(8) ptr @_ZStlsIcSt11char_traitsIcEERSt13basic_ostreamIT_T0_ES6_St5_Setw(ptr noundef nonnull align 8 dereferenceable(8) %7, i32 5)
          to label %22 unwind label %18

22:                                               ; preds = %20
  %23 = invoke noundef nonnull align 8 dereferenceable(8) ptr @_ZStlsIcSt11char_traitsIcEERSt13basic_ostreamIT_T0_ES6_St13_Setprecision(ptr noundef nonnull align 8 dereferenceable(8) %21, i32 2)
          to label %24 unwind label %18

24:                                               ; preds = %22
  %25 = invoke noundef nonnull align 8 dereferenceable(8) ptr @_ZNSolsEPFRSt8ios_baseS0_E(ptr noundef nonnull align 8 dereferenceable(8) %23, ptr noundef nonnull @_ZSt5fixedRSt8ios_base)
          to label %26 unwind label %18

26:                                               ; preds = %24
  %27 = getelementptr inbounds nuw i8, ptr %2, i64 8
  %28 = load i32, ptr %27, align 4
  %29 = sitofp i32 %28 to double
  %30 = load i32, ptr %2, align 4
  %31 = sitofp i32 %30 to double
  %32 = fdiv double %29, %31
  %33 = invoke noundef nonnull align 8 dereferenceable(8) ptr @_ZNSolsEd(ptr noundef nonnull align 8 dereferenceable(8) %25, double noundef %32)
          to label %34 unwind label %18

34:                                               ; preds = %26
  %35 = invoke noundef nonnull align 8 dereferenceable(8) ptr @_ZStlsIcSt11char_traitsIcEERSt13basic_ostreamIT_T0_ES6_St5_Setw(ptr noundef nonnull align 8 dereferenceable(8) %33, i32 5)
          to label %36 unwind label %18

36:                                               ; preds = %34
  %37 = invoke noundef nonnull align 8 dereferenceable(8) ptr @_ZStlsIcSt11char_traitsIcEERSt13basic_ostreamIT_T0_ES6_St13_Setprecision(ptr noundef nonnull align 8 dereferenceable(8) %35, i32 1)
          to label %38 unwind label %18

38:                                               ; preds = %36
  %39 = invoke noundef nonnull align 8 dereferenceable(8) ptr @_ZNSolsEPFRSt8ios_baseS0_E(ptr noundef nonnull align 8 dereferenceable(8) %37, ptr noundef nonnull @_ZSt5fixedRSt8ios_base)
          to label %40 unwind label %18

40:                                               ; preds = %38
  %41 = load i32, ptr %27, align 4
  %42 = sitofp i32 %41 to double
  %43 = fmul double %42, 1.000000e+02
  %44 = getelementptr inbounds nuw i8, ptr %2, i64 12
  %45 = load i32, ptr %44, align 4
  %46 = sitofp i32 %45 to double
  %47 = fdiv double %43, %46
  %48 = invoke noundef nonnull align 8 dereferenceable(8) ptr @_ZNSolsEd(ptr noundef nonnull align 8 dereferenceable(8) %39, double noundef %47)
          to label %49 unwind label %18

49:                                               ; preds = %40, %16
  invoke void @_ZNKSt7__cxx1118basic_stringstreamIcSt11char_traitsIcESaIcEE3strEv(ptr dead_on_unwind writable sret(%"class.std::__cxx11::basic_string") align 8 %0, ptr noundef nonnull align 8 dereferenceable(128) %4)
          to label %50 unwind label %18

50:                                               ; preds = %49
  call void @_ZNSt7__cxx1118basic_stringstreamIcSt11char_traitsIcESaIcEED1Ev(ptr noundef nonnull align 8 dereferenceable(128) %4) #21
  ret void
}